target datalayout = "e-m:e-p270:32:32-p271:32:32-p272:64:64-i64:64-i128:128-f80:128-n8:16:32:64-S128"
target triple = "x86_64-pc-linux-gnu"

%struct.insn_data_struct = type { i32, i32, ptr, ptr }

@encoded_insn_data = internal global ptr null, align 8
@.str.77 = private unnamed_addr constant [47 x i8] c"rb_vm_insn_addr2insn: invalid insn address: %p\00", align 1

; Function Attrs: nounwind sspstrong uwtable
define hidden i32 @rb_vm_insn_addr2insn(ptr noundef %0) #0 {
  %2 = alloca ptr, align 8
  %3 = alloca i64, align 8
  %4 = alloca i64, align 8
  %5 = alloca ptr, align 8
  store ptr %0, ptr %2, align 8, !tbaa !104
  call void @llvm.lifetime.start.p0(i64 8, ptr %3) #24
  %6 = load ptr, ptr %2, align 8, !tbaa !104
  %7 = ptrtoint ptr %6 to i64
  store i64 %7, ptr %3, align 8, !tbaa !17
  call void @llvm.lifetime.start.p0(i64 8, ptr %4) #24
  %8 = load ptr, ptr @encoded_insn_data, align 8, !tbaa !294
  %9 = load i64, ptr %3, align 8, !tbaa !17
  %10 = call i32 @rb_st_lookup(ptr noundef %8, i64 noundef %9, ptr noundef %4)
  %11 = icmp ne i32 %10, 0
  br i1 %11, label %12, label %18

12:                                               ; preds = %1
  call void @llvm.lifetime.start.p0(i64 8, ptr %5) #24
  %13 = load i64, ptr %4, align 8, !tbaa !17
  %14 = inttoptr i64 %13 to ptr
  store ptr %14, ptr %5, align 8, !tbaa !337
  %15 = load ptr, ptr %5, align 8, !tbaa !337
  %16 = getelementptr inbounds nuw %struct.insn_data_struct, ptr %15, i32 0, i32 0
  %17 = load i32, ptr %16, align 8, !tbaa !331
  call void @llvm.lifetime.end.p0(i64 8, ptr %5) #24
  call void @llvm.lifetime.end.p0(i64 8, ptr %4) #24
  call void @llvm.lifetime.end.p0(i64 8, ptr %3) #24
  ret i32 %17

18:                                               ; preds = %1
  %19 = load ptr, ptr %2, align 8, !tbaa !104
  call void (ptr, ...) @rb_bug(ptr noundef @.str.77, ptr noundef %19) #30
  unreachable
}

; Function Attrs: nounwind sspstrong uwtable
define hidden i32 @rb_vm_insn_decode(i64 noundef %0) #0 {
  %2 = alloca i64, align 8
  %3 = alloca i32, align 4
  store i64 %0, ptr %2, align 8, !tbaa !17
  call void @llvm.lifetime.start.p0(i64 4, ptr %3) #24
  %4 = load i64, ptr %2, align 8, !tbaa !17
  %5 = inttoptr i64 %4 to ptr
  %6 = call i32 @rb_vm_insn_addr2insn(ptr noundef %5)
  store i32 %6, ptr %3, align 4, !tbaa !56
  %7 = load i32, ptr %3, align 4, !tbaa !56
  call void @llvm.lifetime.end.p0(i64 4, ptr %3) #24
  ret i32 %7
}