; Function Attrs: nounwind sspstrong uwtable
define hidden i32 @rb_vm_insn_decode(i64 noundef %0) local_unnamed_addr #0 {
  %2 = alloca i64, align 8
  call void @llvm.lifetime.start.p0(i64 8, ptr nonnull %2) #20
  %3 = load ptr, ptr @encoded_insn_data, align 8, !tbaa !165
  %4 = call i32 @rb_st_lookup(ptr noundef %3, i64 noundef %0, ptr noundef nonnull %2) #20
  %.not.i = icmp eq i32 %4, 0
  br i1 %.not.i, label %5, label %rb_vm_insn_addr2insn.exit

5:                                                ; preds = %1
  %6 = inttoptr i64 %0 to ptr
  call void (ptr, ...) @rb_bug(ptr noundef nonnull @.str.77, ptr noundef %6) #23
  unreachable

rb_vm_insn_addr2insn.exit:                        ; preds = %1
  %7 = load i64, ptr %2, align 8, !tbaa !42
  %8 = inttoptr i64 %7 to ptr
  %9 = load i32, ptr %8, align 8, !tbaa !333
  call void @llvm.lifetime.end.p0(i64 8, ptr nonnull %2) #20
  ret i32 %9
}